target datalayout = "e-m:e-p270:32:32-p271:32:32-p272:64:64-i64:64-i128:128-f80:128-n8:16:32:64-S128"
target triple = "x86_64-pc-linux-gnu"

%struct.pg_enc2name = type { ptr, i32 }

@pg_enc2name_tbl = external constant [0 x %struct.pg_enc2name], align 8
@.str.1 = private unnamed_addr constant [10 x i8] c"mbutils.c\00", align 1
@.str.17 = private unnamed_addr constant [7 x i8] c"0x%02x\00", align 1
@.str.18 = private unnamed_addr constant [2 x i8] c" \00", align 1
@.str.19 = private unnamed_addr constant [44 x i8] c"invalid byte sequence for encoding \22%s\22: %s\00", align 1
@__func__.report_invalid_encoding = private unnamed_addr constant [24 x i8] c"report_invalid_encoding\00", align 1

; Function Attrs: noreturn nounwind uwtable
define dso_local void @report_invalid_encoding(i32 noundef %0, ptr noundef %1, i32 noundef %2) #8 {
  %4 = alloca i32, align 4
  %5 = alloca ptr, align 8
  %6 = alloca i32, align 4
  %7 = alloca i32, align 4
  %8 = alloca [41 x i8], align 16
  %9 = alloca ptr, align 8
  %10 = alloca i32, align 4
  %11 = alloca i32, align 4
  store i32 %0, ptr %4, align 4
  store ptr %1, ptr %5, align 8
  store i32 %2, ptr %6, align 4
  call void @llvm.lifetime.start.p0(i64 4, ptr %7) #9
  %12 = load i32, ptr %4, align 4
  %13 = load ptr, ptr %5, align 8
  %14 = call i32 @pg_encoding_mblen(i32 noundef %12, ptr noundef %13)
  store i32 %14, ptr %7, align 4
  call void @llvm.lifetime.start.p0(i64 41, ptr %8) #9
  call void @llvm.lifetime.start.p0(i64 8, ptr %9) #9
  %15 = getelementptr inbounds [41 x i8], ptr %8, i64 0, i64 0
  store ptr %15, ptr %9, align 8
  call void @llvm.lifetime.start.p0(i64 4, ptr %10) #9
  call void @llvm.lifetime.start.p0(i64 4, ptr %11) #9
  %16 = load i32, ptr %7, align 4
  %17 = load i32, ptr %6, align 4
  %18 = icmp slt i32 %16, %17
  br i1 %18, label %19, label %21

19:                                               ; preds = %3
  %20 = load i32, ptr %7, align 4
  br label %23

21:                                               ; preds = %3
  %22 = load i32, ptr %6, align 4
  br label %23

23:                                               ; preds = %21, %19
  %24 = phi i32 [ %20, %19 ], [ %22, %21 ]
  store i32 %24, ptr %11, align 4
  %25 = load i32, ptr %11, align 4
  %26 = icmp slt i32 %25, 8
  br i1 %26, label %27, label %29

27:                                               ; preds = %23
  %28 = load i32, ptr %11, align 4
  br label %30

29:                                               ; preds = %23
  br label %30

30:                                               ; preds = %29, %27
  %31 = phi i32 [ %28, %27 ], [ 8, %29 ]
  store i32 %31, ptr %11, align 4
  store i32 0, ptr %10, align 4
  br label %32

32:                                               ; preds = %59, %30
  %33 = load i32, ptr %10, align 4
  %34 = load i32, ptr %11, align 4
  %35 = icmp slt i32 %33, %34
  br i1 %35, label %36, label %62

36:                                               ; preds = %32
  %37 = load ptr, ptr %9, align 8
  %38 = load ptr, ptr %5, align 8
  %39 = load i32, ptr %10, align 4
  %40 = sext i32 %39 to i64
  %41 = getelementptr inbounds i8, ptr %38, i64 %40
  %42 = load i8, ptr %41, align 1
  %43 = zext i8 %42 to i32
  %44 = call i32 (ptr, ptr, ...) @pg_sprintf(ptr noundef %37, ptr noundef @.str.17, i32 noundef %43)
  %45 = load ptr, ptr %9, align 8
  %46 = sext i32 %44 to i64
  %47 = getelementptr inbounds i8, ptr %45, i64 %46
  store ptr %47, ptr %9, align 8
  %48 = load i32, ptr %10, align 4
  %49 = load i32, ptr %11, align 4
  %50 = sub i32 %49, 1
  %51 = icmp slt i32 %48, %50
  br i1 %51, label %52, label %58

52:                                               ; preds = %36
  %53 = load ptr, ptr %9, align 8
  %54 = call i32 (ptr, ptr, ...) @pg_sprintf(ptr noundef %53, ptr noundef @.str.18)
  %55 = load ptr, ptr %9, align 8
  %56 = sext i32 %54 to i64
  %57 = getelementptr inbounds i8, ptr %55, i64 %56
  store ptr %57, ptr %9, align 8
  br label %58

58:                                               ; preds = %52, %36
  br label %59

59:                                               ; preds = %58
  %60 = load i32, ptr %10, align 4
  %61 = add i32 %60, 1
  store i32 %61, ptr %10, align 4
  br label %32, !llvm.loop !19

62:                                               ; preds = %32
  br label %63

63:                                               ; preds = %62
  br i1 true, label %64, label %66

64:                                               ; preds = %63
  %65 = call zeroext i1 @errstart_cold(i32 noundef 21, ptr noundef null) #10
  br i1 %65, label %68, label %77

66:                                               ; preds = %63
  %67 = call zeroext i1 @errstart(i32 noundef 21, ptr noundef null)
  br i1 %67, label %68, label %77

68:                                               ; preds = %66, %64
  %69 = call i32 @errcode(i32 noundef 17301634)
  %70 = load i32, ptr %4, align 4
  %71 = sext i32 %70 to i64
  %72 = getelementptr inbounds [0 x %struct.pg_enc2name], ptr @pg_enc2name_tbl, i64 0, i64 %71
  %73 = getelementptr inbounds nuw %struct.pg_enc2name, ptr %72, i32 0, i32 0
  %74 = load ptr, ptr %73, align 8
  %75 = getelementptr inbounds [41 x i8], ptr %8, i64 0, i64 0
  %76 = call i32 (ptr, ...) @errmsg(ptr noundef @.str.19, ptr noundef %74, ptr noundef %75)
  call void @errfinish(ptr noundef @.str.1, i32 noundef 1720, ptr noundef @__func__.report_invalid_encoding)
  br label %77

77:                                               ; preds = %68, %66, %64
  unreachable

78:                                               ; No predecessors!
  br label %79

79:                                               ; preds = %78
  call void @llvm.lifetime.end.p0(i64 4, ptr %11) #9
  call void @llvm.lifetime.end.p0(i64 4, ptr %10) #9
  call void @llvm.lifetime.end.p0(i64 8, ptr %9) #9
  call void @llvm.lifetime.end.p0(i64 41, ptr %8) #9
  call void @llvm.lifetime.end.p0(i64 4, ptr %7) #9
  unreachable
}