; Function Attrs: noreturn nounwind uwtable
define dso_local void @report_invalid_encoding(i32 noundef %0, ptr noundef %1, i32 noundef %2) local_unnamed_addr #10 {
  %4 = alloca [41 x i8], align 16
  %5 = tail call i32 @pg_encoding_mblen(i32 noundef %0, ptr noundef %1) #13
  call void @llvm.lifetime.start.p0(i64 41, ptr nonnull %4) #13
  %6 = tail call i32 @llvm.smin.i32(i32 %5, i32 %2)
  %7 = icmp sgt i32 %6, 0
  br i1 %7, label %.lr.ph, label %._crit_edge

.lr.ph:                                           ; preds = %3
  %8 = tail call i32 @llvm.umin.i32(i32 %6, i32 8)
  %9 = add nsw i32 %8, -1
  %10 = zext nneg i32 %9 to i64
  %wide.trip.count = zext nneg i32 %8 to i64
  br label %11

11:                                               ; preds = %.lr.ph, %23
  %indvars.iv = phi i64 [ 0, %.lr.ph ], [ %indvars.iv.next, %23 ]
  %.01921 = phi ptr [ %4, %.lr.ph ], [ %.1, %23 ]
  %12 = getelementptr inbounds nuw i8, ptr %1, i64 %indvars.iv
  %13 = load i8, ptr %12, align 1
  %14 = zext i8 %13 to i32
  %15 = call i32 (ptr, ptr, ...) @pg_sprintf(ptr noundef %.01921, ptr noundef nonnull @.str.17, i32 noundef %14) #13
  %16 = sext i32 %15 to i64
  %17 = getelementptr inbounds i8, ptr %.01921, i64 %16
  %18 = icmp samesign ult i64 %indvars.iv, %10
  br i1 %18, label %19, label %23

19:                                               ; preds = %11
  %20 = call i32 (ptr, ptr, ...) @pg_sprintf(ptr noundef %17, ptr noundef nonnull @.str.18) #13
  %21 = sext i32 %20 to i64
  %22 = getelementptr inbounds i8, ptr %17, i64 %21
  br label %23

23:                                               ; preds = %11, %19
  %.1 = phi ptr [ %22, %19 ], [ %17, %11 ]
  %indvars.iv.next = add nuw nsw i64 %indvars.iv, 1
  %exitcond.not = icmp eq i64 %indvars.iv.next, %wide.trip.count
  br i1 %exitcond.not, label %._crit_edge, label %11, !llvm.loop !16

._crit_edge:                                      ; preds = %23, %3
  %24 = call zeroext i1 @errstart_cold(i32 noundef 21, ptr noundef null) #14
  call void @llvm.assume(i1 %24)
  %25 = call i32 @errcode(i32 noundef 17301634) #13
  %26 = sext i32 %0 to i64
  %27 = getelementptr inbounds [0 x %struct.pg_enc2name], ptr @pg_enc2name_tbl, i64 0, i64 %26
  %28 = load ptr, ptr %27, align 8
  %29 = call i32 (ptr, ...) @errmsg(ptr noundef nonnull @.str.19, ptr noundef %28, ptr noundef nonnull %4) #13
  call void @errfinish(ptr noundef nonnull @.str.1, i32 noundef 1720, ptr noundef nonnull @__func__.report_invalid_encoding) #13
  unreachable
}